Certificate:
    Data:
        Version: 3 (0x2)
        Serial Number: 4112 (0x1010)
        Signature Algorithm: sha256WithRSAEncryption
        Issuer: C=US, ST=California, O=Pinterest Inc., CN=Pinterest Intermediate Certificate Authority
        Validity
            Not Before: May  8 21:16:20 2015 GMT
            Not After : May  7 21:16:20 2018 GMT
        Subject: C=US, ST=California, O=Pinterest Inc., CN=stockinterest.io
        Subject Public Key Info:
            Public Key Algorithm: rsaEncryption
            RSA Public Key: (4096 bit)
                Modulus (4096 bit):
                    00:c4:5a:5f:f0:2f:72:90:f2:64:f1:d2:81:a1:7e:
                    da:cd:0a:6a:be:06:6b:bb:72:a3:81:e7:31:d4:fe:
                    16:96:8b:77:fc:2a:30:b3:07:29:25:f9:10:75:ae:
                    a5:19:61:ae:20:2a:74:61:77:95:e4:79:76:80:82:
                    6d:c3:63:85:89:08:e0:6b:04:5a:ba:97:f5:5e:15:
                    8b:6c:ad:c9:1a:36:97:29:de:5c:c5:e5:73:63:0b:
                    98:e2:ba:ec:97:2e:14:e5:83:39:01:93:52:19:a8:
                    48:9e:a4:e4:52:39:e3:a6:62:5a:83:ed:30:28:ba:
                    32:98:3f:d6:45:76:65:9f:93:7e:fb:b5:01:c1:0a:
                    7e:cc:71:b2:18:59:9d:ec:99:f7:0d:2c:9b:15:cb:
                    3a:73:a0:d2:4b:2a:06:8a:d6:ec:31:f0:31:fe:8e:
                    72:c6:0c:0d:5c:e8:e1:10:6c:35:66:d8:40:59:05:
                    8a:3e:05:bc:2d:65:4b:6f:87:89:2e:07:b3:1b:24:
                    47:16:33:9a:da:ef:e3:f0:c1:c6:b0:50:c4:f2:19:
                    46:66:6f:71:57:37:29:5a:c3:80:a9:05:86:15:53:
                    64:ad:99:14:e7:7d:97:a9:6a:85:4c:6a:b7:5c:fe:
                    e5:e2:db:22:50:ec:a3:8d:f8:b6:2a:e8:73:c3:02:
                    da:1a:0d:6c:05:db:83:f8:7c:3f:66:28:b6:36:57:
                    cd:4e:12:00:1e:7a:2b:c8:7d:11:ed:1a:34:da:69:
                    87:f3:08:06:ed:ec:7e:50:f1:56:de:bb:bd:49:97:
                    ae:cb:df:91:d1:97:87:b2:31:11:52:92:16:12:bc:
                    c3:b3:73:34:b8:a8:a5:7d:00:ea:43:e7:0d:c7:54:
                    e6:51:4f:80:e5:a4:bf:93:fa:8c:6a:16:a5:c2:16:
                    4c:f8:c6:4c:d8:c4:83:22:15:37:fe:02:96:ba:94:
                    5e:b0:68:0f:d0:9f:e8:14:97:b2:cf:30:bd:f2:ff:
                    d1:bd:2b:dd:de:0a:83:0b:08:e0:36:15:d9:3f:8e:
                    08:b6:53:93:3e:3d:72:e0:aa:c2:ed:03:41:4d:22:
                    06:ee:63:d8:aa:8a:7c:3f:56:2f:53:6f:71:fa:44:
                    b5:ae:5c:35:a3:0c:7a:48:fe:fa:85:36:39:cb:f0:
                    1f:1f:79:f4:56:aa:c2:ca:42:63:03:cb:fd:b3:4f:
                    98:38:fa:74:12:21:f1:17:cf:4e:e4:67:75:e4:3c:
                    6a:21:f7:b5:6a:93:8d:70:1c:28:21:6b:89:79:fa:
                    0a:40:1e:9c:40:66:99:8a:9f:56:e6:5a:fa:1d:29:
                    83:e8:61:35:e2:8a:b7:ed:58:8d:92:87:16:0e:9d:
                    85:26:61
                Exponent: 65537 (0x10001)
        X509v3 extensions:
            X509v3 Basic Constraints: 
                CA:FALSE
            Netscape Comment: 
                OpenSSL Generated Certificate
            X509v3 Subject Key Identifier: 
                AA:39:A3:43:6A:4B:3A:87:73:22:71:75:EB:A6:A9:A2:04:9F:D4:00
            X509v3 Authority Key Identifier: 
                keyid:5E:06:93:7A:F5:83:CB:3B:3B:49:43:8D:C1:16:8B:CF:9E:C8:08:6F

    Signature Algorithm: sha256WithRSAEncryption
        60:93:34:32:b8:ac:34:81:f7:06:a1:8a:b0:1d:fb:d1:69:eb:
        50:3d:83:51:0a:a5:00:44:2e:0a:18:db:bb:8b:92:9a:e9:43:
        8b:51:a5:4e:d3:f9:69:fa:a4:77:34:07:39:f3:fc:d6:d4:93:
        20:14:82:35:90:21:e3:02:00:77:0b:4f:e0:99:be:7a:5b:0e:
        56:0a:ca:df:2c:86:93:64:81:c9:7a:09:f0:69:8b:76:bb:27:
        0d:c7:a0:57:db:fa:db:44:1f:be:6b:09:5f:06:83:9c:00:ee:
        82:c1:10:55:c0:6d:e4:ac:13:b7:aa:ac:88:ff:2c:61:a6:9b:
        aa:08:24:7c:94:54:c5:8a:37:d7:b2:88:bd:c9:55:a3:22:0e:
        34:72:ab:92:3e:46:58:c5:89:b2:c7:db:7d:58:89:f1:07:e6:
        96:cd:c0:0d:4a:50:63:07:e6:f1:f2:0b:6d:2c:f5:57:71:35:
        18:ae:a7:81:2a:bc:7c:7a:ae:b1:cc:3a:58:e6:e6:6b:85:18:
        34:48:46:b9:47:92:b3:5a:44:6e:29:2c:67:f5:91:6e:41:7b:
        4d:11:ef:8f:98:35:1b:72:d3:20:8b:b8:d6:f8:e9:d4:25:9e:
        99:26:56:5e:18:82:b0:00:49:bb:2b:7a:27:43:7a:15:fe:10:
        d4:62:f1:88:fb:f2:8c:ea:75:8d:4c:a2:cf:b4:94:79:af:c6:
        f8:ac:10:72:f7:0e:fb:a2:ab:37:9b:7b:1d:63:69:65:d1:5a:
        ef:62:28:4a:4a:63:07:d4:42:2d:86:ea:ed:4c:0f:fe:f2:7c:
        0d:75:ae:4c:0f:78:59:e0:6f:02:c4:63:58:10:1f:2e:99:2d:
        bb:6f:46:5d:3e:b2:13:09:59:8c:71:a8:d1:8d:2a:59:b0:c6:
        1b:07:c2:c0:34:d3:93:09:f1:bd:ce:0f:4a:99:d4:3d:93:73:
        2e:28:f0:46:84:b5:c6:38:a5:23:c1:56:bf:92:59:0c:92:4a:
        41:5e:38:60:fc:ae:85:22:ac:6d:54:5d:21:6a:cc:1e:23:6b:
        53:3a:db:04:98:f9:8c:d6:c0:47:4b:32:da:99:7b:2d:97:f3:
        63:ba:f2:88:70:b0:2d:ef:47:de:52:aa:94:7d:29:98:05:bd:
        b3:65:34:be:5b:f9:89:14:43:42:38:18:af:ef:17:d4:a8:67:
        7b:8e:d8:f2:3c:b0:b8:f8:70:dc:ed:90:11:84:0f:9f:ed:60:
        a0:3b:cc:fc:b1:3c:98:55:66:c2:e8:e0:b8:b2:55:f1:71:bf:
        88:2e:ea:44:5c:99:c8:fc:a2:f9:b4:af:53:73:c8:4c:8b:da:
        24:17:44:ab:94:9a:53:dd
-----BEGIN CERTIFICATE-----
MIIFvzCCA6egAwIBAgICEBAwDQYJKoZIhvcNAQELBQAwcjELMAkGA1UEBhMCVVMx
EzARBgNVBAgTCkNhbGlmb3JuaWExFzAVBgNVBAoTDlBpbnRlcmVzdCBJbmMuMTUw
MwYDVQQDEyxQaW50ZXJlc3QgSW50ZXJtZWRpYXRlIENlcnRpZmljYXRlIEF1dGhv
cml0eTAeFw0xNTA1MDgyMTE2MjBaFw0xODA1MDcyMTE2MjBaMFYxCzAJBgNVBAYT
AlVTMRMwEQYDVQQIEwpDYWxpZm9ybmlhMRcwFQYDVQQKEw5QaW50ZXJlc3QgSW5j
LjEZMBcGA1UEAxMQc3RvY2tpbnRlcmVzdC5pbzCCAiIwDQYJKoZIhvcNAQEBBQAD
ggIPADCCAgoCggIBAMRaX/AvcpDyZPHSgaF+2s0Kar4Ga7tyo4HnMdT+FpaLd/wq
MLMHKSX5EHWupRlhriAqdGF3leR5doCCbcNjhYkI4GsEWrqX9V4Vi2ytyRo2lyne
XMXlc2MLmOK67JcuFOWDOQGTUhmoSJ6k5FI546ZiWoPtMCi6Mpg/1kV2ZZ+Tfvu1
AcEKfsxxshhZneyZ9w0smxXLOnOg0ksqBorW7DHwMf6OcsYMDVzo4RBsNWbYQFkF
ij4FvC1lS2+HiS4HsxskRxYzmtrv4/DBxrBQxPIZRmZvcVc3KVrDgKkFhhVTZK2Z
FOd9l6lqhUxqt1z+5eLbIlDso434tiroc8MC2hoNbAXbg/h8P2YotjZXzU4SAB56
K8h9Ee0aNNpph/MIBu3sflDxVt67vUmXrsvfkdGXh7IxEVKSFhK8w7NzNLiopX0A
6kPnDcdU5lFPgOWkv5P6jGoWpcIWTPjGTNjEgyIVN/4ClrqUXrBoD9Cf6BSXss8w
vfL/0b0r3d4KgwsI4DYV2T+OCLZTkz49cuCqwu0DQU0iBu5j2KqKfD9WL1NvcfpE
ta5cNaMMekj++oU2OcvwHx959FaqwspCYwPL/bNPmDj6dBIh8RfPTuRndeQ8aiH3
tWqTjXAcKCFriXn6CkAenEBmmYqfVuZa+h0pg+hhNeKKt+1YjZKHFg6dhSZhAgMB
AAGjezB5MAkGA1UdEwQCMAAwLAYJYIZIAYb4QgENBB8WHU9wZW5TU0wgR2VuZXJh
dGVkIENlcnRpZmljYXRlMB0GA1UdDgQWBBSqOaNDaks6h3MicXXrpqmiBJ/UADAf
BgNVHSMEGDAWgBReBpN69YPLOztJQ43BFovPnsgIbzANBgkqhkiG9w0BAQsFAAOC
AgEAYJM0MrisNIH3BqGKsB370WnrUD2DUQqlAEQuChjbu4uSmulDi1GlTtP5afqk
dzQHOfP81tSTIBSCNZAh4wIAdwtP4Jm+elsOVgrK3yyGk2SByXoJ8GmLdrsnDceg
V9v620QfvmsJXwaDnADugsEQVcBt5KwTt6qsiP8sYaabqggkfJRUxYo317KIvclV
oyIONHKrkj5GWMWJssfbfViJ8Qfmls3ADUpQYwfm8fILbSz1V3E1GK6ngSq8fHqu
scw6WObma4UYNEhGuUeSs1pEbiksZ/WRbkF7TRHvj5g1G3LTIIu41vjp1CWemSZW
XhiCsABJuyt6J0N6Ff4Q1GLxiPvyjOp1jUyiz7SUea/G+KwQcvcO+6KrN5t7HWNp
ZdFa72IoSkpjB9RCLYbq7UwP/vJ8DXWuTA94WeBvAsRjWBAfLpktu29GXT6yEwlZ
jHGo0Y0qWbDGGwfCwDTTkwnxvc4PSpnUPZNzLijwRoS1xjilI8FWv5JZDJJKQV44
YPyuhSKsbVRdIWrMHiNrUzrbBJj5jNbAR0sy2pl7LZfzY7ryiHCwLe9H3lKqlH0p
mAW9s2U0vlv5iRRDQjgYr+8X1Khne47Y8jywuPhw3O2QEYQPn+1goDvM/LE8mFVm
wujguLJV8XG/iC7qRFyZyPyi+bSvU3PITIvaJBdEq5SaU90=
-----END CERTIFICATE-----
